target datalayout = "e-m:e-p270:32:32-p271:32:32-p272:64:64-i64:64-i128:128-f80:128-n8:16:32:64-S128"
target triple = "x86_64-pc-linux-gnu"

; Function Attrs: nounwind uwtable
define internal void @diffinplace_fun(ptr noundef %0, ptr noundef %1, i32 noundef %2) #0 {
  %4 = alloca ptr, align 8
  %5 = alloca ptr, align 8
  %6 = alloca i32, align 4
  %7 = alloca i32, align 4
  store ptr %0, ptr %4, align 8, !tbaa !72
  store ptr %1, ptr %5, align 8, !tbaa !72
  store i32 %2, ptr %6, align 4, !tbaa !24
  call void @llvm.lifetime.start.p0(i64 4, ptr %7) #12
  store i32 0, ptr %7, align 4, !tbaa !24
  br label %8

8:                                                ; preds = %50, %3
  %9 = load i32, ptr %7, align 4, !tbaa !24
  %10 = load i32, ptr %6, align 4, !tbaa !24
  %11 = icmp slt i32 %9, %10
  br i1 %11, label %13, label %12

12:                                               ; preds = %8
  call void @llvm.lifetime.end.p0(i64 4, ptr %7) #12
  br label %53

13:                                               ; preds = %8
  %14 = load ptr, ptr %4, align 8, !tbaa !72
  %15 = load i32, ptr %7, align 4, !tbaa !24
  %16 = sext i32 %15 to i64
  %17 = getelementptr inbounds i8, ptr %14, i64 %16
  %18 = load i8, ptr %17, align 1, !tbaa !109
  %19 = zext i8 %18 to i32
  %20 = load ptr, ptr %5, align 8, !tbaa !72
  %21 = load i32, ptr %7, align 4, !tbaa !24
  %22 = sext i32 %21 to i64
  %23 = getelementptr inbounds i8, ptr %20, i64 %22
  %24 = load i8, ptr %23, align 1, !tbaa !109
  %25 = zext i8 %24 to i32
  %26 = sub nsw i32 %19, %25
  %27 = icmp sgt i32 %26, 0
  br i1 %27, label %28, label %42

28:                                               ; preds = %13
  %29 = load ptr, ptr %4, align 8, !tbaa !72
  %30 = load i32, ptr %7, align 4, !tbaa !24
  %31 = sext i32 %30 to i64
  %32 = getelementptr inbounds i8, ptr %29, i64 %31
  %33 = load i8, ptr %32, align 1, !tbaa !109
  %34 = zext i8 %33 to i32
  %35 = load ptr, ptr %5, align 8, !tbaa !72
  %36 = load i32, ptr %7, align 4, !tbaa !24
  %37 = sext i32 %36 to i64
  %38 = getelementptr inbounds i8, ptr %35, i64 %37
  %39 = load i8, ptr %38, align 1, !tbaa !109
  %40 = zext i8 %39 to i32
  %41 = sub nsw i32 %34, %40
  br label %43

42:                                               ; preds = %13
  br label %43

43:                                               ; preds = %42, %28
  %44 = phi i32 [ %41, %28 ], [ 0, %42 ]
  %45 = trunc i32 %44 to i8
  %46 = load ptr, ptr %4, align 8, !tbaa !72
  %47 = load i32, ptr %7, align 4, !tbaa !24
  %48 = sext i32 %47 to i64
  %49 = getelementptr inbounds i8, ptr %46, i64 %48
  store i8 %45, ptr %49, align 1, !tbaa !109
  br label %50

50:                                               ; preds = %43
  %51 = load i32, ptr %7, align 4, !tbaa !24
  %52 = add nsw i32 %51, 1
  store i32 %52, ptr %7, align 4, !tbaa !24
  br label %8, !llvm.loop !149

53:                                               ; preds = %12
  ret void
}